; Function Attrs: nounwind uwtable
define hidden i32 @lj_ir_knull(ptr noundef captures(none) %0, i32 noundef %1) local_unnamed_addr #6 {
  %3 = getelementptr inbounds nuw i8, ptr %0, i64 32
  %4 = load ptr, ptr %3, align 8, !tbaa !30
  %5 = getelementptr inbounds nuw i8, ptr %0, i64 456
  %.0.in20 = load i16, ptr %5, align 2, !tbaa !33
  %.not21 = icmp eq i16 %.0.in20, 0
  br i1 %.not21, label %._crit_edge, label %.lr.ph

6:                                                ; preds = %.lr.ph
  %7 = getelementptr inbounds nuw i8, ptr %9, i64 6
  %.0.in = load i16, ptr %7, align 2, !tbaa !33
  %.not = icmp eq i16 %.0.in, 0
  br i1 %.not, label %._crit_edge, label %.lr.ph, !llvm.loop !48

.lr.ph:                                           ; preds = %2, %6
  %.0.in22 = phi i16 [ %.0.in, %6 ], [ %.0.in20, %2 ]
  %8 = zext i16 %.0.in22 to i64
  %9 = getelementptr inbounds nuw %union.IRIns, ptr %4, i64 %8
  %10 = getelementptr inbounds nuw i8, ptr %9, i64 4
  %11 = load i8, ptr %10, align 4, !tbaa !33
  %12 = zext i8 %11 to i32
  %13 = icmp eq i32 %1, %12
  br i1 %13, label %.loopexit, label %6

._crit_edge:                                      ; preds = %6, %2
  %14 = getelementptr inbounds nuw i8, ptr %0, i64 40
  %15 = load i32, ptr %14, align 8, !tbaa !43
  %16 = getelementptr inbounds nuw i8, ptr %0, i64 340
  %17 = load i32, ptr %16, align 4, !tbaa !4
  %.not.i = icmp ugt i32 %15, %17
  br i1 %.not.i, label %ir_nextk.exit, label %18, !prof !32

18:                                               ; preds = %._crit_edge
  tail call fastcc void @lj_ir_growbot(ptr noundef nonnull %0)
  %.pre = load ptr, ptr %3, align 8, !tbaa !30
  br label %ir_nextk.exit

ir_nextk.exit:                                    ; preds = %._crit_edge, %18
  %19 = phi ptr [ %4, %._crit_edge ], [ %.pre, %18 ]
  %20 = add i32 %15, -1
  store i32 %20, ptr %14, align 8, !tbaa !43
  %21 = zext i32 %20 to i64
  %22 = getelementptr inbounds nuw %union.IRIns, ptr %19, i64 %21
  store i32 0, ptr %22, align 8, !tbaa !33
  %23 = trunc i32 %1 to i8
  %24 = getelementptr inbounds nuw i8, ptr %22, i64 4
  store i8 %23, ptr %24, align 4, !tbaa !33
  %25 = getelementptr inbounds nuw i8, ptr %22, i64 5
  store i8 27, ptr %25, align 1, !tbaa !33
  %26 = load i16, ptr %5, align 2, !tbaa !34
  %27 = getelementptr inbounds nuw i8, ptr %22, i64 6
  store i16 %26, ptr %27, align 2, !tbaa !33
  %28 = trunc i32 %20 to i16
  store i16 %28, ptr %5, align 2, !tbaa !34
  br label %29

.loopexit:                                        ; preds = %.lr.ph
  %.0.le = zext i16 %.0.in22 to i32
  br label %29

29:                                               ; preds = %.loopexit, %ir_nextk.exit
  %.1 = phi i32 [ %20, %ir_nextk.exit ], [ %.0.le, %.loopexit ]
  %30 = shl i32 %1, 24
  %31 = add i32 %.1, %30
  ret i32 %31
}